; Function Attrs: mustprogress uwtable
define void @_ZN24json11_internal_lightgbm4Json5parseERKNSt7__cxx1112basic_stringIcSt11char_traitsIcESaIcEEEPS6_NS_9JsonParseE(ptr dead_on_unwind noalias writable sret(%"class.json11_internal_lightgbm::Json") align 8 %0, ptr noundef nonnull align 8 dereferenceable(32) %1, ptr noundef %2, i32 noundef %3) local_unnamed_addr #1 align 2 personality ptr @__gxx_personality_v0 {
  %5 = alloca %"struct.json11_internal_lightgbm::(anonymous namespace)::JsonParser", align 8
  %6 = alloca %"class.json11_internal_lightgbm::Json", align 16
  %7 = alloca %"class.std::__cxx11::basic_string", align 8
  %8 = alloca %"class.std::__cxx11::basic_string", align 8
  %9 = tail call noundef ptr @_ZNKSt7__cxx1112basic_stringIcSt11char_traitsIcESaIcEE5c_strEv(ptr noundef nonnull align 8 dereferenceable(32) %1) #22
  store ptr %9, ptr %5, align 8
  %10 = getelementptr inbounds i8, ptr %5, i64 8
  %11 = tail call noundef i64 @_ZNKSt7__cxx1112basic_stringIcSt11char_traitsIcESaIcEE4sizeEv(ptr noundef nonnull align 8 dereferenceable(32) %1) #22
  store i64 %11, ptr %10, align 8
  %12 = getelementptr inbounds i8, ptr %5, i64 16
  store i64 0, ptr %12, align 8
  %13 = getelementptr inbounds i8, ptr %5, i64 24
  store ptr %2, ptr %13, align 8
  %14 = getelementptr inbounds i8, ptr %5, i64 32
  store i8 0, ptr %14, align 8
  %15 = getelementptr inbounds i8, ptr %5, i64 36
  store i32 %3, ptr %15, align 4
  call fastcc void @_ZN24json11_internal_lightgbm12_GLOBAL__N_110JsonParser10parse_jsonEi(ptr dead_on_unwind noalias nonnull writable align 8 %6, ptr noundef nonnull align 8 dereferenceable(40) %5, i32 noundef 0)
  invoke fastcc void @_ZN24json11_internal_lightgbm12_GLOBAL__N_110JsonParser15consume_garbageEv(ptr noundef nonnull align 8 dereferenceable(40) %5)
          to label %16 unwind label %20

16:                                               ; preds = %4
  %17 = load i8, ptr %14, align 8
  %18 = trunc i8 %17 to i1
  br i1 %18, label %19, label %22

19:                                               ; preds = %16
  call void @_ZN24json11_internal_lightgbm4JsonC1Ev(ptr noundef nonnull align 8 dereferenceable(16) %0) #22
  br label %41

20:                                               ; preds = %25, %4
  %21 = landingpad { ptr, i32 }
          cleanup
  br label %78

22:                                               ; preds = %16
  %23 = load i64, ptr %12, align 8
  %24 = call noundef i64 @_ZNKSt7__cxx1112basic_stringIcSt11char_traitsIcESaIcEE4sizeEv(ptr noundef nonnull align 8 dereferenceable(32) %1) #22
  %.not = icmp eq i64 %23, %24
  br i1 %.not, label %38, label %25

25:                                               ; preds = %22
  %26 = load i64, ptr %12, align 8
  %27 = call noundef nonnull align 1 dereferenceable(1) ptr @_ZNKSt7__cxx1112basic_stringIcSt11char_traitsIcESaIcEEixEm(ptr noundef nonnull align 8 dereferenceable(32) %1, i64 noundef %26) #22
  %28 = load i8, ptr %27, align 1
  invoke fastcc void @_ZN24json11_internal_lightgbmL3escB5cxx11Ec(ptr dead_on_unwind noalias nonnull writable align 8 %8, i8 noundef signext %28)
          to label %29 unwind label %20

29:                                               ; preds = %25
  %30 = invoke noundef nonnull align 8 dereferenceable(32) ptr @_ZNSt7__cxx1112basic_stringIcSt11char_traitsIcESaIcEE6insertEmPKc(ptr noundef nonnull align 8 dereferenceable(32) %8, i64 noundef 0, ptr noundef nonnull @.str.15)
          to label %31 unwind label %33

31:                                               ; preds = %29
  call void @_ZNSt7__cxx1112basic_stringIcSt11char_traitsIcESaIcEEC1EOS4_(ptr noundef nonnull align 8 dereferenceable(32) %7, ptr noundef nonnull align 8 dereferenceable(32) %30) #22
  invoke fastcc void @_ZN24json11_internal_lightgbm12_GLOBAL__N_110JsonParser4failEONSt7__cxx1112basic_stringIcSt11char_traitsIcESaIcEEE(ptr dead_on_unwind noalias writable align 8 %0, ptr noundef nonnull align 8 dereferenceable(40) %5, ptr noundef nonnull align 8 dereferenceable(32) %7)
          to label %32 unwind label %35

32:                                               ; preds = %31
  call void @_ZNSt7__cxx1112basic_stringIcSt11char_traitsIcESaIcEED1Ev(ptr noundef nonnull align 8 dereferenceable(32) %7) #22
  call void @_ZNSt7__cxx1112basic_stringIcSt11char_traitsIcESaIcEED1Ev(ptr noundef nonnull align 8 dereferenceable(32) %8) #22
  br label %41

33:                                               ; preds = %29
  %34 = landingpad { ptr, i32 }
          cleanup
  br label %37

35:                                               ; preds = %31
  %36 = landingpad { ptr, i32 }
          cleanup
  call void @_ZNSt7__cxx1112basic_stringIcSt11char_traitsIcESaIcEED1Ev(ptr noundef nonnull align 8 dereferenceable(32) %7) #22
  br label %37

37:                                               ; preds = %35, %33
  %.pn = phi { ptr, i32 } [ %36, %35 ], [ %34, %33 ]
  call void @_ZNSt7__cxx1112basic_stringIcSt11char_traitsIcESaIcEED1Ev(ptr noundef nonnull align 8 dereferenceable(32) %8) #22
  br label %78

38:                                               ; preds = %22
  %39 = getelementptr inbounds i8, ptr %6, i64 8
  %40 = load <2 x ptr>, ptr %6, align 16
  store ptr null, ptr %39, align 8
  store <2 x ptr> %40, ptr %0, align 8
  store ptr null, ptr %6, align 16
  br label %41

41:                                               ; preds = %38, %32, %19
  %42 = getelementptr inbounds i8, ptr %6, i64 8
  %43 = load ptr, ptr %42, align 8
  %.not.i.i.i.i = icmp eq ptr %43, null
  br i1 %.not.i.i.i.i, label %_ZN24json11_internal_lightgbm4JsonD2Ev.exit, label %44

44:                                               ; preds = %41
  %45 = getelementptr inbounds i8, ptr %43, i64 8
  %46 = load atomic i64, ptr %45 acquire, align 8
  %47 = icmp eq i64 %46, 4294967297
  %48 = trunc i64 %46 to i32
  br i1 %47, label %49, label %54

49:                                               ; preds = %44
  store i32 0, ptr %45, align 8
  %50 = getelementptr inbounds i8, ptr %43, i64 12
  store i32 0, ptr %50, align 4
  %51 = load ptr, ptr %43, align 8
  %52 = getelementptr inbounds i8, ptr %51, i64 16
  %53 = load ptr, ptr %52, align 8
  call void %53(ptr noundef nonnull align 8 dereferenceable(16) %43) #22
  br label %_ZNSt16_Sp_counted_baseILN9__gnu_cxx12_Lock_policyE2EE24_M_release_last_use_coldEv.exit.sink.split.i.i.i.i.i

54:                                               ; preds = %44
  %55 = load i8, ptr @__libc_single_threaded, align 1
  %.not.i.i.i.i.i = icmp eq i8 %55, 0
  br i1 %.not.i.i.i.i.i, label %58, label %56

56:                                               ; preds = %54
  %57 = add nsw i32 %48, -1
  store i32 %57, ptr %45, align 4
  br label %60

58:                                               ; preds = %54
  %59 = atomicrmw volatile add ptr %45, i32 -1 acq_rel, align 4
  br label %60

60:                                               ; preds = %58, %56
  %.0.i.i.i.i.i = phi i32 [ %48, %56 ], [ %59, %58 ]
  %61 = icmp eq i32 %.0.i.i.i.i.i, 1
  br i1 %61, label %62, label %_ZN24json11_internal_lightgbm4JsonD2Ev.exit

62:                                               ; preds = %60
  %63 = load ptr, ptr %43, align 8
  %64 = getelementptr inbounds i8, ptr %63, i64 16
  %65 = load ptr, ptr %64, align 8
  call void %65(ptr noundef nonnull align 8 dereferenceable(16) %43) #22
  %66 = getelementptr inbounds i8, ptr %43, i64 12
  %67 = load i8, ptr @__libc_single_threaded, align 1
  %.not.i.i.i.i.i.i.i = icmp eq i8 %67, 0
  br i1 %.not.i.i.i.i.i.i.i, label %71, label %68

68:                                               ; preds = %62
  %69 = load i32, ptr %66, align 4
  %70 = add nsw i32 %69, -1
  store i32 %70, ptr %66, align 4
  br label %73

71:                                               ; preds = %62
  %72 = atomicrmw volatile add ptr %66, i32 -1 acq_rel, align 4
  br label %73

73:                                               ; preds = %71, %68
  %.0.i.i.i.i.i.i.i = phi i32 [ %69, %68 ], [ %72, %71 ]
  %74 = icmp eq i32 %.0.i.i.i.i.i.i.i, 1
  br i1 %74, label %_ZNSt16_Sp_counted_baseILN9__gnu_cxx12_Lock_policyE2EE24_M_release_last_use_coldEv.exit.sink.split.i.i.i.i.i, label %_ZN24json11_internal_lightgbm4JsonD2Ev.exit

_ZNSt16_Sp_counted_baseILN9__gnu_cxx12_Lock_policyE2EE24_M_release_last_use_coldEv.exit.sink.split.i.i.i.i.i: ; preds = %73, %49
  %75 = load ptr, ptr %43, align 8
  %76 = getelementptr inbounds i8, ptr %75, i64 24
  %77 = load ptr, ptr %76, align 8
  call void %77(ptr noundef nonnull align 8 dereferenceable(16) %43) #22
  br label %_ZN24json11_internal_lightgbm4JsonD2Ev.exit

_ZN24json11_internal_lightgbm4JsonD2Ev.exit:      ; preds = %41, %60, %73, %_ZNSt16_Sp_counted_baseILN9__gnu_cxx12_Lock_policyE2EE24_M_release_last_use_coldEv.exit.sink.split.i.i.i.i.i
  ret void

78:                                               ; preds = %37, %20
  %.pn.pn = phi { ptr, i32 } [ %.pn, %37 ], [ %21, %20 ]
  call void @_ZN24json11_internal_lightgbm4JsonD2Ev(ptr noundef nonnull align 8 dereferenceable(16) %6) #22
  resume { ptr, i32 } %.pn.pn
}